; ModuleID = 'source-C-CXX/3/894.cpp'
source_filename = "source-C-CXX/3/894.cpp"
target datalayout = "e-m:e-p270:32:32-p271:32:32-p272:64:64-i64:64-f80:128-n8:16:32:64-S128"
target triple = "x86_64-pc-linux-gnu"

%"class.std::ios_base::Init" = type { i8 }
%"class.std::basic_istream" = type { i32 (...)**, i64, %"class.std::basic_ios" }
%"class.std::basic_ios" = type { %"class.std::ios_base", %"class.std::basic_ostream"*, i8, i8, %"class.std::basic_streambuf"*, %"class.std::ctype"*, %"class.std::num_put"*, %"class.std::num_get"* }
%"class.std::ios_base" = type { i32 (...)**, i64, i64, i32, i32, i32, %"struct.std::ios_base::_Callback_list"*, %"struct.std::ios_base::_Words", [8 x %"struct.std::ios_base::_Words"], i32, %"struct.std::ios_base::_Words"*, %"class.std::locale" }
%"struct.std::ios_base::_Callback_list" = type { %"struct.std::ios_base::_Callback_list"*, void (i32, %"class.std::ios_base"*, i32)*, i32, i32 }
%"struct.std::ios_base::_Words" = type { i8*, i64 }
%"class.std::locale" = type { %"class.std::locale::_Impl"* }
%"class.std::locale::_Impl" = type { i32, %"class.std::locale::facet"**, i64, %"class.std::locale::facet"**, i8** }
%"class.std::locale::facet" = type <{ i32 (...)**, i32, [4 x i8] }>
%"class.std::basic_ostream" = type { i32 (...)**, %"class.std::basic_ios" }
%"class.std::basic_streambuf" = type { i32 (...)**, i8*, i8*, i8*, i8*, i8*, i8*, %"class.std::locale" }
%"class.std::ctype" = type <{ %"class.std::locale::facet.base", [4 x i8], %struct.__locale_struct*, i8, [7 x i8], i32*, i32*, i16*, i8, [256 x i8], [256 x i8], i8, [6 x i8] }>
%"class.std::locale::facet.base" = type <{ i32 (...)**, i32 }>
%struct.__locale_struct = type { [13 x %struct.__locale_data*], i16*, i32*, i32*, [13 x i8*] }
%struct.__locale_data = type opaque
%"class.std::num_put" = type { %"class.std::locale::facet.base", [4 x i8] }
%"class.std::num_get" = type { %"class.std::locale::facet.base", [4 x i8] }

@_ZStL8__ioinit = internal global %"class.std::ios_base::Init" zeroinitializer, align 1
@__dso_handle = external hidden global i8
@_ZSt3cin = external global %"class.std::basic_istream", align 8
@_ZSt4cout = external global %"class.std::basic_ostream", align 8
@llvm.global_ctors = appending global [1 x { i32, void ()*, i8* }] [{ i32, void ()*, i8* } { i32 65535, void ()* @_GLOBAL__sub_I_894.cpp, i8* null }]

declare void @_ZNSt8ios_base4InitC1Ev(%"class.std::ios_base::Init"* nonnull align 1 dereferenceable(1)) unnamed_addr #0

; Function Attrs: nounwind
declare void @_ZNSt8ios_base4InitD1Ev(%"class.std::ios_base::Init"* nonnull align 1 dereferenceable(1)) unnamed_addr #1

; Function Attrs: nofree nounwind
declare i32 @__cxa_atexit(void (i8*)*, i8*, i8*) local_unnamed_addr #2

; Function Attrs: mustprogress norecurse sspstrong uwtable
define dso_local i32 @main() local_unnamed_addr #3 {
  %1 = alloca i32, align 4
  %2 = alloca i32, align 4
  %3 = alloca [110 x [110 x i32]], align 16
  %4 = bitcast i32* %1 to i8*
  call void @llvm.lifetime.start.p0i8(i64 4, i8* nonnull %4) #7
  %5 = bitcast i32* %2 to i8*
  call void @llvm.lifetime.start.p0i8(i64 4, i8* nonnull %5) #7
  %6 = bitcast [110 x [110 x i32]]* %3 to i8*
  call void @llvm.lifetime.start.p0i8(i64 48400, i8* nonnull %6) #7
  %7 = call nonnull align 8 dereferenceable(16) %"class.std::basic_istream"* @_ZNSirsERi(%"class.std::basic_istream"* nonnull align 8 dereferenceable(16) @_ZSt3cin, i32* nonnull align 4 dereferenceable(4) %1)
  %8 = call nonnull align 8 dereferenceable(16) %"class.std::basic_istream"* @_ZNSirsERi(%"class.std::basic_istream"* nonnull align 8 dereferenceable(16) %7, i32* nonnull align 4 dereferenceable(4) %2)
  %9 = load i32, i32* %1, align 4, !tbaa !5
  %10 = icmp sgt i32 %9, 0
  %11 = load i32, i32* %2, align 4, !tbaa !5
  %12 = icmp sgt i32 %11, 0
  %13 = select i1 %10, i1 %12, i1 false
  br i1 %13, label %14, label %19

14:                                               ; preds = %0, %35
  %15 = phi i32 [ %36, %35 ], [ %9, %0 ]
  %16 = phi i32 [ %37, %35 ], [ %11, %0 ]
  %17 = phi i64 [ %38, %35 ], [ 0, %0 ]
  %18 = icmp sgt i32 %16, 0
  br i1 %18, label %25, label %35

19:                                               ; preds = %35, %0
  %20 = phi i32 [ %11, %0 ], [ %37, %35 ]
  %21 = phi i32 [ %9, %0 ], [ %36, %35 ]
  %22 = add i32 %21, -2
  %23 = add i32 %22, %20
  %24 = icmp slt i32 %23, 0
  br i1 %24, label %41, label %42

25:                                               ; preds = %14, %25
  %26 = phi i64 [ %29, %25 ], [ 0, %14 ]
  %27 = getelementptr inbounds [110 x [110 x i32]], [110 x [110 x i32]]* %3, i64 0, i64 %17, i64 %26
  %28 = call nonnull align 8 dereferenceable(16) %"class.std::basic_istream"* @_ZNSirsERi(%"class.std::basic_istream"* nonnull align 8 dereferenceable(16) @_ZSt3cin, i32* nonnull align 4 dereferenceable(4) %27)
  %29 = add nuw nsw i64 %26, 1
  %30 = load i32, i32* %2, align 4, !tbaa !5
  %31 = sext i32 %30 to i64
  %32 = icmp slt i64 %29, %31
  br i1 %32, label %25, label %33, !llvm.loop !9

33:                                               ; preds = %25
  %34 = load i32, i32* %1, align 4, !tbaa !5
  br label %35

35:                                               ; preds = %33, %14
  %36 = phi i32 [ %34, %33 ], [ %15, %14 ]
  %37 = phi i32 [ %30, %33 ], [ %16, %14 ]
  %38 = add nuw nsw i64 %17, 1
  %39 = sext i32 %36 to i64
  %40 = icmp slt i64 %38, %39
  br i1 %40, label %14, label %19, !llvm.loop !11

41:                                               ; preds = %146, %19
  call void @llvm.lifetime.end.p0i8(i64 48400, i8* nonnull %6) #7
  call void @llvm.lifetime.end.p0i8(i64 4, i8* nonnull %5) #7
  call void @llvm.lifetime.end.p0i8(i64 4, i8* nonnull %4) #7
  ret i32 0

42:                                               ; preds = %19, %146
  %43 = phi i32 [ %147, %146 ], [ %21, %19 ]
  %44 = phi i64 [ %148, %146 ], [ 0, %19 ]
  %45 = phi i32 [ %149, %146 ], [ %20, %19 ]
  %46 = sext i32 %45 to i64
  %47 = icmp slt i64 %44, %46
  br i1 %47, label %58, label %48

48:                                               ; preds = %42
  %49 = getelementptr inbounds [110 x [110 x i32]], [110 x [110 x i32]]* %3, i64 0, i64 %44
  %50 = trunc i64 %44 to i32
  %51 = add i32 %50, 1
  %52 = sub i32 %51, %43
  %53 = icmp sgt i32 %45, %52
  %54 = icmp sgt i32 %45, 0
  %55 = and i1 %54, %53
  br i1 %55, label %56, label %146

56:                                               ; preds = %48
  %57 = zext i32 %45 to i64
  br label %102

58:                                               ; preds = %42
  %59 = icmp sgt i32 %43, 0
  br i1 %59, label %60, label %146

60:                                               ; preds = %58, %92
  %61 = phi i64 [ %96, %92 ], [ 0, %58 ]
  %62 = getelementptr inbounds [110 x [110 x i32]], [110 x [110 x i32]]* %3, i64 0, i64 %61, i64 %44
  %63 = sub nsw i64 0, %61
  %64 = getelementptr inbounds i32, i32* %62, i64 %63
  %65 = load i32, i32* %64, align 4, !tbaa !5
  %66 = call nonnull align 8 dereferenceable(8) %"class.std::basic_ostream"* @_ZNSolsEi(%"class.std::basic_ostream"* nonnull align 8 dereferenceable(8) @_ZSt4cout, i32 %65)
  %67 = bitcast %"class.std::basic_ostream"* %66 to i8**
  %68 = load i8*, i8** %67, align 8, !tbaa !13
  %69 = getelementptr i8, i8* %68, i64 -24
  %70 = bitcast i8* %69 to i64*
  %71 = load i64, i64* %70, align 8
  %72 = bitcast %"class.std::basic_ostream"* %66 to i8*
  %73 = add nsw i64 %71, 240
  %74 = getelementptr inbounds i8, i8* %72, i64 %73
  %75 = bitcast i8* %74 to %"class.std::ctype"**
  %76 = load %"class.std::ctype"*, %"class.std::ctype"** %75, align 8, !tbaa !15
  %77 = icmp eq %"class.std::ctype"* %76, null
  br i1 %77, label %78, label %79

78:                                               ; preds = %60
  call void @_ZSt16__throw_bad_castv() #8
  unreachable

79:                                               ; preds = %60
  %80 = getelementptr inbounds %"class.std::ctype", %"class.std::ctype"* %76, i64 0, i32 8
  %81 = load i8, i8* %80, align 8, !tbaa !19
  %82 = icmp eq i8 %81, 0
  br i1 %82, label %86, label %83

83:                                               ; preds = %79
  %84 = getelementptr inbounds %"class.std::ctype", %"class.std::ctype"* %76, i64 0, i32 9, i64 10
  %85 = load i8, i8* %84, align 1, !tbaa !21
  br label %92

86:                                               ; preds = %79
  call void @_ZNKSt5ctypeIcE13_M_widen_initEv(%"class.std::ctype"* nonnull align 8 dereferenceable(570) %76)
  %87 = bitcast %"class.std::ctype"* %76 to i8 (%"class.std::ctype"*, i8)***
  %88 = load i8 (%"class.std::ctype"*, i8)**, i8 (%"class.std::ctype"*, i8)*** %87, align 8, !tbaa !13
  %89 = getelementptr inbounds i8 (%"class.std::ctype"*, i8)*, i8 (%"class.std::ctype"*, i8)** %88, i64 6
  %90 = load i8 (%"class.std::ctype"*, i8)*, i8 (%"class.std::ctype"*, i8)** %89, align 8
  %91 = call signext i8 %90(%"class.std::ctype"* nonnull align 8 dereferenceable(570) %76, i8 signext 10)
  br label %92

92:                                               ; preds = %83, %86
  %93 = phi i8 [ %85, %83 ], [ %91, %86 ]
  %94 = call nonnull align 8 dereferenceable(8) %"class.std::basic_ostream"* @_ZNSo3putEc(%"class.std::basic_ostream"* nonnull align 8 dereferenceable(8) %66, i8 signext %93)
  %95 = call nonnull align 8 dereferenceable(8) %"class.std::basic_ostream"* @_ZNSo5flushEv(%"class.std::basic_ostream"* nonnull align 8 dereferenceable(8) %94)
  %96 = add nuw nsw i64 %61, 1
  %97 = load i32, i32* %1, align 4, !tbaa !5
  %98 = sext i32 %97 to i64
  %99 = icmp slt i64 %96, %98
  %100 = icmp ult i64 %61, %44
  %101 = select i1 %99, i1 %100, i1 false
  br i1 %101, label %60, label %146, !llvm.loop !22

102:                                              ; preds = %56, %136
  %103 = phi i64 [ %57, %56 ], [ %145, %136 ]
  %104 = phi i32 [ %45, %56 ], [ %105, %136 ]
  %105 = add nsw i32 %104, -1
  %106 = zext i32 %105 to i64
  %107 = sub nsw i64 0, %106
  %108 = getelementptr inbounds [110 x i32], [110 x i32]* %49, i64 %107, i64 %106
  %109 = load i32, i32* %108, align 4, !tbaa !5
  %110 = call nonnull align 8 dereferenceable(8) %"class.std::basic_ostream"* @_ZNSolsEi(%"class.std::basic_ostream"* nonnull align 8 dereferenceable(8) @_ZSt4cout, i32 %109)
  %111 = bitcast %"class.std::basic_ostream"* %110 to i8**
  %112 = load i8*, i8** %111, align 8, !tbaa !13
  %113 = getelementptr i8, i8* %112, i64 -24
  %114 = bitcast i8* %113 to i64*
  %115 = load i64, i64* %114, align 8
  %116 = bitcast %"class.std::basic_ostream"* %110 to i8*
  %117 = add nsw i64 %115, 240
  %118 = getelementptr inbounds i8, i8* %116, i64 %117
  %119 = bitcast i8* %118 to %"class.std::ctype"**
  %120 = load %"class.std::ctype"*, %"class.std::ctype"** %119, align 8, !tbaa !15
  %121 = icmp eq %"class.std::ctype"* %120, null
  br i1 %121, label %122, label %123

122:                                              ; preds = %102
  call void @_ZSt16__throw_bad_castv() #8
  unreachable

123:                                              ; preds = %102
  %124 = getelementptr inbounds %"class.std::ctype", %"class.std::ctype"* %120, i64 0, i32 8
  %125 = load i8, i8* %124, align 8, !tbaa !19
  %126 = icmp eq i8 %125, 0
  br i1 %126, label %130, label %127

127:                                              ; preds = %123
  %128 = getelementptr inbounds %"class.std::ctype", %"class.std::ctype"* %120, i64 0, i32 9, i64 10
  %129 = load i8, i8* %128, align 1, !tbaa !21
  br label %136

130:                                              ; preds = %123
  call void @_ZNKSt5ctypeIcE13_M_widen_initEv(%"class.std::ctype"* nonnull align 8 dereferenceable(570) %120)
  %131 = bitcast %"class.std::ctype"* %120 to i8 (%"class.std::ctype"*, i8)***
  %132 = load i8 (%"class.std::ctype"*, i8)**, i8 (%"class.std::ctype"*, i8)*** %131, align 8, !tbaa !13
  %133 = getelementptr inbounds i8 (%"class.std::ctype"*, i8)*, i8 (%"class.std::ctype"*, i8)** %132, i64 6
  %134 = load i8 (%"class.std::ctype"*, i8)*, i8 (%"class.std::ctype"*, i8)** %133, align 8
  %135 = call signext i8 %134(%"class.std::ctype"* nonnull align 8 dereferenceable(570) %120, i8 signext 10)
  br label %136

136:                                              ; preds = %127, %130
  %137 = phi i8 [ %129, %127 ], [ %135, %130 ]
  %138 = call nonnull align 8 dereferenceable(8) %"class.std::basic_ostream"* @_ZNSo3putEc(%"class.std::basic_ostream"* nonnull align 8 dereferenceable(8) %110, i8 signext %137)
  %139 = call nonnull align 8 dereferenceable(8) %"class.std::basic_ostream"* @_ZNSo5flushEv(%"class.std::basic_ostream"* nonnull align 8 dereferenceable(8) %138)
  %140 = load i32, i32* %1, align 4, !tbaa !5
  %141 = sub i32 %51, %140
  %142 = icmp sgt i32 %105, %141
  %143 = icmp sgt i64 %103, 1
  %144 = and i1 %143, %142
  %145 = add nsw i64 %103, -1
  br i1 %144, label %102, label %146, !llvm.loop !23

146:                                              ; preds = %136, %92, %48, %58
  %147 = phi i32 [ %43, %48 ], [ %43, %58 ], [ %97, %92 ], [ %140, %136 ]
  %148 = add nuw nsw i64 %44, 1
  %149 = load i32, i32* %2, align 4, !tbaa !5
  %150 = add i32 %147, -2
  %151 = add i32 %150, %149
  %152 = sext i32 %151 to i64
  %153 = icmp slt i64 %44, %152
  br i1 %153, label %42, label %41, !llvm.loop !24
}

; Function Attrs: argmemonly mustprogress nofree nosync nounwind willreturn
declare void @llvm.lifetime.start.p0i8(i64 immarg, i8* nocapture) #4

declare nonnull align 8 dereferenceable(16) %"class.std::basic_istream"* @_ZNSirsERi(%"class.std::basic_istream"* nonnull align 8 dereferenceable(16), i32* nonnull align 4 dereferenceable(4)) local_unnamed_addr #0

declare nonnull align 8 dereferenceable(8) %"class.std::basic_ostream"* @_ZNSolsEi(%"class.std::basic_ostream"* nonnull align 8 dereferenceable(8), i32) local_unnamed_addr #0

; Function Attrs: argmemonly mustprogress nofree nosync nounwind willreturn
declare void @llvm.lifetime.end.p0i8(i64 immarg, i8* nocapture) #4

declare nonnull align 8 dereferenceable(8) %"class.std::basic_ostream"* @_ZNSo3putEc(%"class.std::basic_ostream"* nonnull align 8 dereferenceable(8), i8 signext) local_unnamed_addr #0

declare nonnull align 8 dereferenceable(8) %"class.std::basic_ostream"* @_ZNSo5flushEv(%"class.std::basic_ostream"* nonnull align 8 dereferenceable(8)) local_unnamed_addr #0

; Function Attrs: noreturn
declare void @_ZSt16__throw_bad_castv() local_unnamed_addr #5

declare void @_ZNKSt5ctypeIcE13_M_widen_initEv(%"class.std::ctype"* nonnull align 8 dereferenceable(570)) local_unnamed_addr #0

; Function Attrs: sspstrong uwtable
define internal void @_GLOBAL__sub_I_894.cpp() #6 section ".text.startup" {
  tail call void @_ZNSt8ios_base4InitC1Ev(%"class.std::ios_base::Init"* nonnull align 1 dereferenceable(1) @_ZStL8__ioinit)
  %1 = tail call i32 @__cxa_atexit(void (i8*)* bitcast (void (%"class.std::ios_base::Init"*)* @_ZNSt8ios_base4InitD1Ev to void (i8*)*), i8* getelementptr inbounds (%"class.std::ios_base::Init", %"class.std::ios_base::Init"* @_ZStL8__ioinit, i64 0, i32 0), i8* nonnull @__dso_handle) #7
  ret void
}


!llvm.module.flags = !{!0, !1, !2, !3}
!llvm.ident = !{!4}

!0 = !{i32 1, !"wchar_size", i32 4}
!1 = !{i32 7, !"PIC Level", i32 2}
!2 = !{i32 7, !"PIE Level", i32 2}
!3 = !{i32 7, !"uwtable", i32 1}
!4 = !{!"clang version 13.0.0"}
!5 = !{!6, !6, i64 0}
!6 = !{!"int", !7, i64 0}
!7 = !{!"omnipotent char", !8, i64 0}
!8 = !{!"Simple C++ TBAA"}
!9 = distinct !{!9, !10}
!10 = !{!"llvm.loop.mustprogress"}
!11 = distinct !{!11, !10, !12}
!12 = !{!"llvm.loop.unswitch.partial.disable"}
!13 = !{!14, !14, i64 0}
!14 = !{!"vtable pointer", !8, i64 0}
!15 = !{!16, !17, i64 240}
!16 = !{!"_ZTSSt9basic_iosIcSt11char_traitsIcEE", !17, i64 216, !7, i64 224, !18, i64 225, !17, i64 232, !17, i64 240, !17, i64 248, !17, i64 256}
!17 = !{!"any pointer", !7, i64 0}
!18 = !{!"bool", !7, i64 0}
!19 = !{!20, !7, i64 56}
!20 = !{!"_ZTSSt5ctypeIcE", !17, i64 16, !18, i64 24, !17, i64 32, !17, i64 40, !17, i64 48, !7, i64 56, !7, i64 57, !7, i64 313, !7, i64 569}
!21 = !{!7, !7, i64 0}
!22 = distinct !{!22, !10}
!23 = distinct !{!23, !10}
!24 = distinct !{!24, !10}
